; ModuleID = '29/1882.c'
source_filename = "29/1882.c"
target datalayout = "e-m:e-p270:32:32-p271:32:32-p272:64:64-i64:64-f80:128-n8:16:32:64-S128"
target triple = "x86_64-pc-linux-gnu"

@.str = private unnamed_addr constant [3 x i8] c"%d\00", align 1
@.str.1 = private unnamed_addr constant [7 x i8] c"%.3lf\0A\00", align 1

; Function Attrs: noinline nounwind uwtable
define dso_local i32 @main() #0 {
  %1 = alloca i32, align 4
  %2 = alloca i32, align 4
  %3 = alloca i32, align 4
  %4 = alloca i32, align 4
  %5 = alloca i32, align 4
  %6 = alloca i32, align 4
  %7 = alloca i32, align 4
  %8 = alloca double, align 8
  %9 = alloca [100 x double], align 16
  %10 = alloca [100 x double], align 16
  store i32 0, i32* %1, align 4
  store i32 1, i32* %4, align 4
  store i32 2, i32* %5, align 4
  store i32 2, i32* %6, align 4
  store i32 0, i32* %7, align 4
  store double 0.000000e+00, double* %8, align 8
  %11 = bitcast [100 x double]* %9 to i8*
  call void @llvm.memset.p0i8.i64(i8* align 16 %11, i8 0, i64 800, i1 false)
  %12 = bitcast i8* %11 to <{ double, double, [98 x double] }>*
  %13 = getelementptr inbounds <{ double, double, [98 x double] }>, <{ double, double, [98 x double] }>* %12, i32 0, i32 0
  store double 2.000000e+00, double* %13, align 16
  %14 = getelementptr inbounds <{ double, double, [98 x double] }>, <{ double, double, [98 x double] }>* %12, i32 0, i32 1
  store double 3.000000e+00, double* %14, align 8
  %15 = bitcast [100 x double]* %10 to i8*
  call void @llvm.memset.p0i8.i64(i8* align 16 %15, i8 0, i64 800, i1 false)
  %16 = bitcast i8* %15 to <{ double, double, [98 x double] }>*
  %17 = getelementptr inbounds <{ double, double, [98 x double] }>, <{ double, double, [98 x double] }>* %16, i32 0, i32 0
  store double 1.000000e+00, double* %17, align 16
  %18 = getelementptr inbounds <{ double, double, [98 x double] }>, <{ double, double, [98 x double] }>* %16, i32 0, i32 1
  store double 2.000000e+00, double* %18, align 8
  br label %19

19:                                               ; preds = %22, %0
  %20 = load i32, i32* %5, align 4
  %21 = icmp slt i32 %20, 100
  br i1 %21, label %22, label %39

22:                                               ; preds = %19
  %23 = load i32, i32* %5, align 4
  %24 = sub nsw i32 %23, 2
  %25 = sext i32 %24 to i64
  %26 = getelementptr inbounds [100 x double], [100 x double]* %9, i64 0, i64 %25
  %27 = load double, double* %26, align 8
  %28 = load i32, i32* %5, align 4
  %29 = sub nsw i32 %28, 1
  %30 = sext i32 %29 to i64
  %31 = getelementptr inbounds [100 x double], [100 x double]* %9, i64 0, i64 %30
  %32 = load double, double* %31, align 8
  %33 = fadd double %27, %32
  %34 = load i32, i32* %5, align 4
  %35 = sext i32 %34 to i64
  %36 = getelementptr inbounds [100 x double], [100 x double]* %9, i64 0, i64 %35
  store double %33, double* %36, align 8
  %37 = load i32, i32* %5, align 4
  %38 = add nsw i32 %37, 1
  store i32 %38, i32* %5, align 4
  br label %19

39:                                               ; preds = %19
  br label %40

40:                                               ; preds = %43, %39
  %41 = load i32, i32* %6, align 4
  %42 = icmp slt i32 %41, 100
  br i1 %42, label %43, label %60

43:                                               ; preds = %40
  %44 = load i32, i32* %6, align 4
  %45 = sub nsw i32 %44, 2
  %46 = sext i32 %45 to i64
  %47 = getelementptr inbounds [100 x double], [100 x double]* %10, i64 0, i64 %46
  %48 = load double, double* %47, align 8
  %49 = load i32, i32* %6, align 4
  %50 = sub nsw i32 %49, 1
  %51 = sext i32 %50 to i64
  %52 = getelementptr inbounds [100 x double], [100 x double]* %10, i64 0, i64 %51
  %53 = load double, double* %52, align 8
  %54 = fadd double %48, %53
  %55 = load i32, i32* %6, align 4
  %56 = sext i32 %55 to i64
  %57 = getelementptr inbounds [100 x double], [100 x double]* %10, i64 0, i64 %56
  store double %54, double* %57, align 8
  %58 = load i32, i32* %6, align 4
  %59 = add nsw i32 %58, 1
  store i32 %59, i32* %6, align 4
  br label %40

60:                                               ; preds = %40
  %61 = call i32 (i8*, ...) @__isoc99_scanf(i8* getelementptr inbounds ([3 x i8], [3 x i8]* @.str, i64 0, i64 0), i32* %2)
  br label %62

62:                                               ; preds = %86, %60
  %63 = load i32, i32* %4, align 4
  %64 = load i32, i32* %2, align 4
  %65 = icmp sle i32 %63, %64
  br i1 %65, label %66, label %91

66:                                               ; preds = %62
  %67 = call i32 (i8*, ...) @__isoc99_scanf(i8* getelementptr inbounds ([3 x i8], [3 x i8]* @.str, i64 0, i64 0), i32* %3)
  store double 0.000000e+00, double* %8, align 8
  store i32 0, i32* %7, align 4
  br label %68

68:                                               ; preds = %72, %66
  %69 = load i32, i32* %7, align 4
  %70 = load i32, i32* %3, align 4
  %71 = icmp slt i32 %69, %70
  br i1 %71, label %72, label %86

72:                                               ; preds = %68
  %73 = load double, double* %8, align 8
  %74 = load i32, i32* %7, align 4
  %75 = sext i32 %74 to i64
  %76 = getelementptr inbounds [100 x double], [100 x double]* %9, i64 0, i64 %75
  %77 = load double, double* %76, align 8
  %78 = load i32, i32* %7, align 4
  %79 = sext i32 %78 to i64
  %80 = getelementptr inbounds [100 x double], [100 x double]* %10, i64 0, i64 %79
  %81 = load double, double* %80, align 8
  %82 = fdiv double %77, %81
  %83 = fadd double %73, %82
  store double %83, double* %8, align 8
  %84 = load i32, i32* %7, align 4
  %85 = add nsw i32 %84, 1
  store i32 %85, i32* %7, align 4
  br label %68

86:                                               ; preds = %68
  %87 = load double, double* %8, align 8
  %88 = call i32 (i8*, ...) @printf(i8* getelementptr inbounds ([7 x i8], [7 x i8]* @.str.1, i64 0, i64 0), double %87)
  %89 = load i32, i32* %4, align 4
  %90 = add nsw i32 %89, 1
  store i32 %90, i32* %4, align 4
  br label %62

91:                                               ; preds = %62
  ret i32 0
}

; Function Attrs: argmemonly nounwind willreturn
declare void @llvm.memset.p0i8.i64(i8* nocapture writeonly, i8, i64, i1 immarg) #1

declare dso_local i32 @__isoc99_scanf(i8*, ...) #2

declare dso_local i32 @printf(i8*, ...) #2


!llvm.module.flags = !{!0}
!llvm.ident = !{!1}

!0 = !{i32 1, !"wchar_size", i32 4}
!1 = !{!"clang version 10.0.0-4ubuntu1 "}
